target datalayout = "e-m:e-p270:32:32-p271:32:32-p272:64:64-i64:64-i128:128-f80:128-n8:16:32:64-S128"
target triple = "x86_64-pc-linux-gnu"

%class.ScopeValue = type { ptr }
%class.ConstantIntValue = type <{ %class.ScopeValue, i32, [4 x i8] }>
%class.ConstantLongValue = type { %class.ScopeValue, i64 }

@_ZN13CodeInstaller19_int_m1_scope_valueE = hidden global ptr null, align 8
@_ZN13CodeInstaller18_int_0_scope_valueE = hidden global ptr null, align 8
@_ZN13CodeInstaller18_int_1_scope_valueE = hidden global ptr null, align 8
@_ZN13CodeInstaller18_int_2_scope_valueE = hidden global ptr null, align 8
@.str = private unnamed_addr constant [47 x i8] c"src/hotspot/share/jvmci/jvmciCodeInstaller.cpp\00", align 1
@.str.45 = private unnamed_addr constant [40 x i8] c"unexpected primitive constant type %s%s\00", align 1
@_ZTV16ConstantIntValue = external unnamed_addr constant { [13 x ptr] }, align 8
@_ZTV17ConstantLongValue = external unnamed_addr constant { [13 x ptr] }, align 8

; Function Attrs: mustprogress nounwind uwtable
define linkonce_odr hidden void @_ZN10ScopeValueC2Ev(ptr noundef nonnull align 8 dereferenceable(8) %0) unnamed_addr #1 comdat align 2 {
  %2 = alloca ptr, align 8
  store ptr %0, ptr %2, align 8
  %3 = load ptr, ptr %2, align 8
  store ptr getelementptr inbounds inrange(-16, 88) ({ [13 x ptr] }, ptr @_ZTV10ScopeValue, i32 0, i32 0, i32 2), ptr %3, align 8
  ret void
}

; Function Attrs: mustprogress nounwind uwtable
define linkonce_odr hidden void @_ZN17ConstantLongValueC2El(ptr noundef nonnull align 8 dereferenceable(16) %0, i64 noundef %1) unnamed_addr #1 comdat align 2 {
  %3 = alloca ptr, align 8
  %4 = alloca i64, align 8
  store ptr %0, ptr %3, align 8
  store i64 %1, ptr %4, align 8
  %5 = load ptr, ptr %3, align 8
  call void @_ZN10ScopeValueC2Ev(ptr noundef nonnull align 8 dereferenceable(8) %5) #11
  store ptr getelementptr inbounds inrange(-16, 88) ({ [13 x ptr] }, ptr @_ZTV17ConstantLongValue, i32 0, i32 0, i32 2), ptr %5, align 8
  %6 = load i64, ptr %4, align 8
  %7 = getelementptr inbounds %class.ConstantLongValue, ptr %5, i32 0, i32 1
  store i64 %6, ptr %7, align 8
  ret void
}

; Function Attrs: mustprogress nounwind uwtable
define linkonce_odr hidden void @_ZN16ConstantIntValueC2Ei(ptr noundef nonnull align 8 dereferenceable(12) %0, i32 noundef %1) unnamed_addr #1 comdat align 2 {
  %3 = alloca ptr, align 8
  %4 = alloca i32, align 4
  store ptr %0, ptr %3, align 8
  store i32 %1, ptr %4, align 4
  %5 = load ptr, ptr %3, align 8
  call void @_ZN10ScopeValueC2Ev(ptr noundef nonnull align 8 dereferenceable(8) %5) #11
  store ptr getelementptr inbounds inrange(-16, 88) ({ [13 x ptr] }, ptr @_ZTV16ConstantIntValue, i32 0, i32 0, i32 2), ptr %5, align 8
  %6 = load i32, ptr %4, align 4
  %7 = getelementptr inbounds %class.ConstantIntValue, ptr %5, i32 0, i32 1
  store i32 %6, ptr %7, align 8
  ret void
}

; Function Attrs: mustprogress nounwind uwtable
define linkonce_odr hidden noundef ptr @_ZN6AnyObjnwEm(i64 noundef %0) #1 comdat align 2 {
  %2 = alloca i64, align 8
  %3 = alloca ptr, align 8
  store i64 %0, ptr %2, align 8
  %4 = load i64, ptr %2, align 8
  %5 = call noundef ptr @_Z23resource_allocate_bytesmN17AllocFailStrategy13AllocFailEnumE(i64 noundef %4, i32 noundef 0)
  store ptr %5, ptr %3, align 8
  %6 = load ptr, ptr %3, align 8
  ret ptr %6
}

; Function Attrs: mustprogress nounwind uwtable
define hidden noundef ptr @_ZN13CodeInstaller18to_primitive_valueEP25HotSpotCompiledCodeStreaml9BasicTypeRP10ScopeValueP8JVMCIEnv(ptr noundef %0, i64 noundef %1, i8 noundef zeroext %2, ptr noundef nonnull align 8 dereferenceable(8) %3, ptr noundef %4) #1 align 2 {
  %6 = alloca ptr, align 8
  %7 = alloca ptr, align 8
  %8 = alloca i64, align 8
  %9 = alloca i8, align 1
  %10 = alloca ptr, align 8
  %11 = alloca ptr, align 8
  %12 = alloca i32, align 4
  %13 = alloca i64, align 8
  store ptr %0, ptr %7, align 8
  store i64 %1, ptr %8, align 8
  store i8 %2, ptr %9, align 1
  store ptr %3, ptr %10, align 8
  store ptr %4, ptr %11, align 8
  %14 = load i8, ptr %9, align 1
  %15 = zext i8 %14 to i32
  %16 = icmp eq i32 %15, 10
  br i1 %16, label %21, label %17

17:                                               ; preds = %5
  %18 = load i8, ptr %9, align 1
  %19 = zext i8 %18 to i32
  %20 = icmp eq i32 %19, 6
  br i1 %20, label %21, label %36

21:                                               ; preds = %17, %5
  %22 = load i64, ptr %8, align 8
  %23 = trunc i64 %22 to i32
  store i32 %23, ptr %12, align 4
  %24 = load i32, ptr %12, align 4
  switch i32 %24, label %33 [
    i32 -1, label %25
    i32 0, label %27
    i32 1, label %29
    i32 2, label %31
  ]

25:                                               ; preds = %21
  %26 = load ptr, ptr @_ZN13CodeInstaller19_int_m1_scope_valueE, align 8
  store ptr %26, ptr %6, align 8
  br label %56

27:                                               ; preds = %21
  %28 = load ptr, ptr @_ZN13CodeInstaller18_int_0_scope_valueE, align 8
  store ptr %28, ptr %6, align 8
  br label %56

29:                                               ; preds = %21
  %30 = load ptr, ptr @_ZN13CodeInstaller18_int_1_scope_valueE, align 8
  store ptr %30, ptr %6, align 8
  br label %56

31:                                               ; preds = %21
  %32 = load ptr, ptr @_ZN13CodeInstaller18_int_2_scope_valueE, align 8
  store ptr %32, ptr %6, align 8
  br label %56

33:                                               ; preds = %21
  %34 = call noundef ptr @_ZN6AnyObjnwEm(i64 noundef 16)
  %35 = load i32, ptr %12, align 4
  call void @_ZN16ConstantIntValueC2Ei(ptr noundef nonnull align 8 dereferenceable(12) %34, i32 noundef %35)
  store ptr %34, ptr %6, align 8
  br label %56

36:                                               ; preds = %17
  %37 = load i8, ptr %9, align 1
  %38 = zext i8 %37 to i32
  %39 = icmp eq i32 %38, 11
  br i1 %39, label %44, label %40

40:                                               ; preds = %36
  %41 = load i8, ptr %9, align 1
  %42 = zext i8 %41 to i32
  %43 = icmp eq i32 %42, 7
  br i1 %43, label %44, label %50

44:                                               ; preds = %40, %36
  %45 = load i64, ptr %8, align 8
  store i64 %45, ptr %13, align 8
  %46 = load ptr, ptr @_ZN13CodeInstaller18_int_1_scope_valueE, align 8
  %47 = load ptr, ptr %10, align 8
  store ptr %46, ptr %47, align 8
  %48 = call noundef ptr @_ZN6AnyObjnwEm(i64 noundef 16)
  %49 = load i64, ptr %13, align 8
  call void @_ZN17ConstantLongValueC2El(ptr noundef nonnull align 8 dereferenceable(16) %48, i64 noundef %49)
  store ptr %48, ptr %6, align 8
  br label %56

50:                                               ; preds = %40
  %51 = load ptr, ptr %11, align 8
  %52 = load i8, ptr %9, align 1
  %53 = call noundef ptr @_Z16basictype_to_str9BasicType(i8 noundef zeroext %52)
  %54 = load ptr, ptr %7, align 8
  %55 = call noundef ptr @_ZNK25HotSpotCompiledCodeStream7contextEv(ptr noundef nonnull align 8 dereferenceable(64) %54)
  call void (ptr, ptr, i32, ptr, ...) @_ZN8JVMCIEnv12fthrow_errorEPKciS1_z(ptr noundef nonnull align 8 dereferenceable(64) %51, ptr noundef @.str, i32 noundef 365, ptr noundef @.str.45, ptr noundef %53, ptr noundef %55)
  store ptr null, ptr %6, align 8
  br label %56

56:                                               ; preds = %50, %44, %33, %31, %29, %27, %25
  %57 = load ptr, ptr %6, align 8
  ret ptr %57
}