; Function Attrs: mustprogress nounwind uwtable
define hidden noundef ptr @_ZN13CodeInstaller18to_primitive_valueEP25HotSpotCompiledCodeStreaml9BasicTypeRP10ScopeValueP8JVMCIEnv(ptr nocapture noundef readonly %0, i64 noundef %1, i8 noundef zeroext %2, ptr nocapture noundef nonnull writeonly align 8 dereferenceable(8) %3, ptr noundef %4) local_unnamed_addr #2 align 2 {
  switch i8 %2, label %23 [
    i8 10, label %6
    i8 6, label %6
    i8 11, label %19
    i8 7, label %19
  ]

6:                                                ; preds = %5, %5
  %7 = trunc i64 %1 to i32
  switch i32 %7, label %16 [
    i32 -1, label %8
    i32 0, label %10
    i32 1, label %12
    i32 2, label %14
  ]

8:                                                ; preds = %6
  %9 = load ptr, ptr @_ZN13CodeInstaller19_int_m1_scope_valueE, align 8
  br label %26

10:                                               ; preds = %6
  %11 = load ptr, ptr @_ZN13CodeInstaller18_int_0_scope_valueE, align 8
  br label %26

12:                                               ; preds = %6
  %13 = load ptr, ptr @_ZN13CodeInstaller18_int_1_scope_valueE, align 8
  br label %26

14:                                               ; preds = %6
  %15 = load ptr, ptr @_ZN13CodeInstaller18_int_2_scope_valueE, align 8
  br label %26

16:                                               ; preds = %6
  %17 = tail call noundef ptr @_Z23resource_allocate_bytesmN17AllocFailStrategy13AllocFailEnumE(i64 noundef 16, i32 noundef 0) #10
  store ptr getelementptr inbounds inrange(-16, 88) (i8, ptr @_ZTV16ConstantIntValue, i64 16), ptr %17, align 8
  %18 = getelementptr inbounds i8, ptr %17, i64 8
  store i32 %7, ptr %18, align 8
  br label %26

19:                                               ; preds = %5, %5
  %20 = load ptr, ptr @_ZN13CodeInstaller18_int_1_scope_valueE, align 8
  store ptr %20, ptr %3, align 8
  %21 = tail call noundef ptr @_Z23resource_allocate_bytesmN17AllocFailStrategy13AllocFailEnumE(i64 noundef 16, i32 noundef 0) #10
  store ptr getelementptr inbounds inrange(-16, 88) (i8, ptr @_ZTV17ConstantLongValue, i64 16), ptr %21, align 8
  %22 = getelementptr inbounds i8, ptr %21, i64 8
  store i64 %1, ptr %22, align 8
  br label %26

23:                                               ; preds = %5
  %24 = tail call noundef ptr @_Z16basictype_to_str9BasicType(i8 noundef zeroext %2) #10
  %25 = tail call noundef ptr @_ZNK25HotSpotCompiledCodeStream7contextEv(ptr noundef nonnull align 8 dereferenceable(64) %0)
  tail call void (ptr, ptr, i32, ptr, ...) @_ZN8JVMCIEnv12fthrow_errorEPKciS1_z(ptr noundef nonnull align 8 dereferenceable(64) %4, ptr noundef nonnull @.str, i32 noundef 365, ptr noundef nonnull @.str.45, ptr noundef %24, ptr noundef %25) #10
  br label %26

26:                                               ; preds = %23, %19, %16, %14, %12, %10, %8
  %.0 = phi ptr [ %17, %16 ], [ %15, %14 ], [ %13, %12 ], [ %11, %10 ], [ %9, %8 ], [ %21, %19 ], [ null, %23 ]
  ret ptr %.0
}